(dp1
S'output'
p2
S'The "end" tag is unmatched, please check if you have a starting "block" tag'
p3
sS'layer'
p4
S'ParserContainer'
p5
sS'code'
p6
S"{{left_sidebar_enabled,right_sidebar_enabled=False,('message' in globals())}}\n{{extend 'layout.html'}}\n\n<h1>\n    Enter Your Schedule\n</h1>\n{{end}}\n"
p7
sS'snapshot'
p8
(dp9
S'exception'
p10
(dp11
S'__module__'
p12
S"'gluon.rocket'"
p13
sS'__getslice__'
p14
S"<method-wrapper '__getslice__' of SocketTimeout object>"
p15
sS'__str__'
p16
S"<method-wrapper '__str__' of SocketTimeout object>"
p17
sS'__reduce__'
p18
S'<built-in method __reduce__ of SocketTimeout object>'
p19
sS'__dict__'
p20
S'{}'
p21
sS'__sizeof__'
p22
S'<built-in method __sizeof__ of SocketTimeout object>'
p23
sS'__weakref__'
p24
S'None'
p25
sS'__init__'
p26
S"<method-wrapper '__init__' of SocketTimeout object>"
p27
sS'__setattr__'
p28
S"<method-wrapper '__setattr__' of SocketTimeout object>"
p29
sS'__reduce_ex__'
p30
S'<built-in method __reduce_ex__ of SocketTimeout object>'
p31
sS'__new__'
p32
S'<built-in method __new__ of type object>'
p33
sS'__format__'
p34
S'<built-in method __format__ of SocketTimeout object>'
p35
sS'__class__'
p36
S"<class 'gluon.rocket.SocketTimeout'>"
p37
sS'__doc__'
p38
S"'Exception for when a socket times out between requests.'"
p39
sS'__getitem__'
p40
S"<method-wrapper '__getitem__' of SocketTimeout object>"
p41
sS'__setstate__'
p42
S'<built-in method __setstate__ of SocketTimeout object>'
p43
sS'__getattribute__'
p44
S"<method-wrapper '__getattribute__' of SocketTimeout object>"
p45
sS'args'
p46
S"('Socket timed out before request.',)"
p47
sS'__subclasshook__'
p48
S'<built-in method __subclasshook__ of type object>'
p49
sS'__unicode__'
p50
S'<built-in method __unicode__ of SocketTimeout object>'
p51
sS'__delattr__'
p52
S"<method-wrapper '__delattr__' of SocketTimeout object>"
p53
sS'__repr__'
p54
S"<method-wrapper '__repr__' of SocketTimeout object>"
p55
sS'__hash__'
p56
S"<method-wrapper '__hash__' of SocketTimeout object>"
p57
ssS'evalue'
p58
S'Socket timed out before request.'
p59
sS'frames'
p60
(lp61
(dp62
S'file'
p63
S'/Users/kyleoconnor/Desktop/web2py/web2py.app/Contents/Resources/gluon/rocket.py'
p64
sS'dump'
p65
(dp66
sS'lnum'
p67
I1337
sS'lines'
p68
(dp69
I1332
S'            # Enter connection serve loop'
p70
sI1333
S'            while True:'
p71
sI1334
S'                if __debug__:'
p72
sI1335
S"                    self.err_log.debug('Serving a request')"
p73
sI1336
S'                try:'
p74
sI1337
S'                    self.run_app(conn)'
p75
sI1338
S'                except:'
p76
sI1339
S'                    exc = sys.exc_info()'
p77
sI1340
S'                    handled = self._handleError(*exc)'
p78
sI1341
S'                    if handled:'
p79
ssS'call'
p80
S'(self=<WSGIWorker(Thread-2, started daemon 123145318293504)>)'
p81
sS'func'
p82
S'run'
p83
sa(dp84
g63
S'/Users/kyleoconnor/Desktop/web2py/web2py.app/Contents/Resources/gluon/rocket.py'
p85
sg65
(dp86
sg67
I1830
sg68
(dp87
I1825
S'        else:'
p88
sI1826
S'            sock_file = conn.makefile(BUF_SIZE)'
p89
sI1827
S''
sI1828
S'        try:'
p90
sI1829
S'            # Read the headers and build our WSGI environment'
p91
sI1830
S'            self.environ = environ = self.build_environ(sock_file, conn)'
p92
sI1831
S''
sI1832
S'            # Handle 100 Continue'
p93
sI1833
S"            if environ.get('HTTP_EXPECT', '') == '100-continue':"
p94
sI1834
S"                res = environ['SERVER_PROTOCOL'] + ' 100 Continue\\r\\n\\r\\n'"
p95
ssg80
S'(self=<WSGIWorker(Thread-2, started daemon 123145318293504)>, conn=<gluon.rocket.Connection object>)'
p96
sg82
S'run_app'
p97
sa(dp98
g63
S'/Users/kyleoconnor/Desktop/web2py/web2py.app/Contents/Resources/gluon/rocket.py'
p99
sg65
(dp100
sg67
I1650
sg68
(dp101
I1645
S'                                      "wsgiorg.futures": executor.futures})'
p102
sI1646
S''
sI1647
S'    def build_environ(self, sock_file, conn):'
p103
sI1648
S'        """ Build the execution environment. """'
p104
sI1649
S'        # Grab the request line'
p105
sI1650
S'        request = self.read_request_line(sock_file)'
p106
sI1651
S''
sI1652
S'        # Copy the Base Environment'
p107
sI1653
S'        environ = self.base_environ.copy()'
p108
sI1654
S''
ssg80
S'(self=<WSGIWorker(Thread-2, started daemon 123145318293504)>, sock_file=<socket._fileobject object>, conn=<gluon.rocket.Connection object>)'
p109
sg82
S'build_environ'
p110
sa(dp111
g63
S'/Users/kyleoconnor/Desktop/web2py/web2py.app/Contents/Resources/gluon/rocket.py'
p112
sg65
(dp113
sg67
I1401
sg68
(dp114
I1396
S''
sI1397
S'                d = sock_file.readline()'
p115
sI1398
S'                if PY3K:'
p116
sI1399
S"                    d = d.decode('ISO-8859-1')"
p117
sI1400
S'        except socket.timeout:'
p118
sI1401
S"            raise SocketTimeout('Socket timed out before request.')"
p119
sI1402
S'        except TypeError:'
p120
sI1403
S'            raise SocketClosed('
p121
sI1404
S"                'SSL bug caused closure of socket.  See '"
p122
sI1405
S'                \'"https://groups.google.com/d/topic/web2py/P_Gw0JxWzCs".\')'
p123
ssg80
S'(self=<WSGIWorker(Thread-2, started daemon 123145318293504)>, sock_file=<socket._fileobject object>)'
p124
sg82
S'read_request_line'
p125
sasS'pyver'
p126
S'Python 2.7.3: /Users/kyleoconnor/Desktop/web2py/web2py.app/Contents/MacOS/python (prefix: /Users/kyleoconnor/Desktop/web2py/web2py.app/Contents/Resources)'
p127
sS'etype'
p128
S"<class 'gluon.rocket.SocketTimeout'>"
p129
sS'date'
p130
S'Thu Oct  6 19:38:37 2016'
p131
sS'locals'
p132
(dp133
S'sock_file'
p134
S'<socket._fileobject object>'
p135
sS'self'
p136
S'<WSGIWorker(Thread-2, started daemon 123145318293504)>'
p137
sssS'traceback'
p138
S'Traceback (most recent call last):\n  File "/Users/kyleoconnor/Desktop/web2py/web2py.app/Contents/Resources/gluon/rocket.py", line 1337, in run\n  File "/Users/kyleoconnor/Desktop/web2py/web2py.app/Contents/Resources/gluon/rocket.py", line 1830, in run_app\n  File "/Users/kyleoconnor/Desktop/web2py/web2py.app/Contents/Resources/gluon/rocket.py", line 1650, in build_environ\n  File "/Users/kyleoconnor/Desktop/web2py/web2py.app/Contents/Resources/gluon/rocket.py", line 1401, in read_request_line\nSocketTimeout: Socket timed out before request.\n'
p139
s.