(dp1
S'output'
p2
S"<class 'sqlite3.OperationalError'> no such table: groups"
p3
sS'layer'
p4
S'/Applications/web2py/web2py.app/Contents/Resources/applications/gapSort/controllers/appadmin.py'
p5
sS'code'
p6
S'# -*- coding: utf-8 -*-\n\n# ##########################################################\n# ## make sure administrator is on localhost\n# ###########################################################\n\nimport os\nimport socket\nimport datetime\nimport copy\nimport gluon.contenttype\nimport gluon.fileutils\n\ntry:\n    import pygraphviz as pgv\nexcept ImportError:\n    pgv = None\n\nis_gae = request.env.web2py_runtime_gae or False\n\n# ## critical --- make a copy of the environment\n\nglobal_env = copy.copy(globals())\nglobal_env[\'datetime\'] = datetime\n\nhttp_host = request.env.http_host.split(\':\')[0]\nremote_addr = request.env.remote_addr\ntry:\n    hosts = (http_host, socket.gethostname(),\n             socket.gethostbyname(http_host),\n             \'::1\', \'127.0.0.1\', \'::ffff:127.0.0.1\')\nexcept:\n    hosts = (http_host, )\n\nif request.is_https:\n    session.secure()\nelif (remote_addr not in hosts) and (remote_addr != "127.0.0.1") and \\\n    (request.function != \'manage\'):\n    raise HTTP(200, T(\'appadmin is disabled because insecure channel\'))\n\nif request.function == \'manage\':\n    if not \'auth\' in globals() or not request.args:\n        redirect(URL(request.controller, \'index\'))\n    manager_action = auth.settings.manager_actions.get(request.args(0), None)\n    if manager_action is None and request.args(0) == \'auth\':\n        manager_action = dict(role=auth.settings.auth_manager_role,\n                              heading=T(\'Manage Access Control\'),\n                              tables=[auth.table_user(),\n                                      auth.table_group(),\n                                      auth.table_permission()])\n    manager_role = manager_action.get(\'role\', None) if manager_action else None\n    if not (gluon.fileutils.check_credentials(request) or auth.has_membership(manager_role)):\n        raise HTTP(403, "Not authorized")\n    menu = False\nelif (request.application == \'admin\' and not session.authorized) or \\\n        (request.application != \'admin\' and not gluon.fileutils.check_credentials(request)):\n    redirect(URL(\'admin\', \'default\', \'index\',\n                 vars=dict(send=URL(args=request.args, vars=request.vars))))\nelse:\n    response.subtitle = T(\'Database Administration (appadmin)\')\n    menu = True\n\nignore_rw = True\nresponse.view = \'appadmin.html\'\nif menu:\n    response.menu = [[T(\'design\'), False, URL(\'admin\', \'default\', \'design\',\n                 args=[request.application])], [T(\'db\'), False,\n                 URL(\'index\')], [T(\'state\'), False,\n                 URL(\'state\')], [T(\'cache\'), False,\n                 URL(\'ccache\')]]\n\n# ##########################################################\n# ## auxiliary functions\n# ###########################################################\n\nif False and request.tickets_db:\n    from gluon.restricted import TicketStorage\n    ts = TicketStorage()\n    ts._get_table(request.tickets_db, ts.tablename, request.application)\n\ndef get_databases(request):\n    dbs = {}\n    for (key, value) in global_env.items():\n        try:\n            cond = isinstance(value, GQLDB)\n        except:\n            cond = isinstance(value, SQLDB)\n        if cond:\n            dbs[key] = value\n    return dbs\n\ndatabases = get_databases(None)\n\ndef eval_in_global_env(text):\n    exec (\'_ret=%s\' % text, {}, global_env)\n    return global_env[\'_ret\']\n\n\ndef get_database(request):\n    if request.args and request.args[0] in databases:\n        return eval_in_global_env(request.args[0])\n    else:\n        session.flash = T(\'invalid request\')\n        redirect(URL(\'index\'))\n\ndef get_table(request):\n    db = get_database(request)\n    if len(request.args) > 1 and request.args[1] in db.tables:\n        return (db, request.args[1])\n    else:\n        session.flash = T(\'invalid request\')\n        redirect(URL(\'index\'))\n\n\ndef get_query(request):\n    try:\n        return eval_in_global_env(request.vars.query)\n    except Exception:\n        return None\n\n\ndef query_by_table_type(tablename, db, request=request):\n    keyed = hasattr(db[tablename], \'_primarykey\')\n    if keyed:\n        firstkey = db[tablename][db[tablename]._primarykey[0]]\n        cond = \'>0\'\n        if firstkey.type in [\'string\', \'text\']:\n            cond = \'!=""\'\n        qry = \'%s.%s.%s%s\' % (\n            request.args[0], request.args[1], firstkey.name, cond)\n    else:\n        qry = \'%s.%s.id>0\' % tuple(request.args[:2])\n    return qry\n\n\n# ##########################################################\n# ## list all databases and tables\n# ###########################################################\ndef index():\n    return dict(databases=databases)\n\n\n# ##########################################################\n# ## insert a new record\n# ###########################################################\n\n\ndef insert():\n    (db, table) = get_table(request)\n    form = SQLFORM(db[table], ignore_rw=ignore_rw)\n    if form.accepts(request.vars, session):\n        response.flash = T(\'new record inserted\')\n    return dict(form=form, table=db[table])\n\n\n# ##########################################################\n# ## list all records in table and insert new record\n# ###########################################################\n\n\ndef download():\n    import os\n    db = get_database(request)\n    return response.download(request, db)\n\n\ndef csv():\n    import gluon.contenttype\n    response.headers[\'Content-Type\'] = \\\n        gluon.contenttype.contenttype(\'.csv\')\n    db = get_database(request)\n    query = get_query(request)\n    if not query:\n        return None\n    response.headers[\'Content-disposition\'] = \'attachment; filename=%s_%s.csv\'\\\n        % tuple(request.vars.query.split(\'.\')[:2])\n    return str(db(query, ignore_common_filters=True).select())\n\n\ndef import_csv(table, file):\n    table.import_from_csv_file(file)\n\n\ndef select():\n    import re\n    db = get_database(request)\n    dbname = request.args[0]\n    try:\n        is_imap = db._uri.startswith("imap://")\n    except (KeyError, AttributeError, TypeError):\n        is_imap = False\n    regex = re.compile(\'(?P<table>\\w+)\\.(?P<field>\\w+)=(?P<value>\\d+)\')\n    if len(request.args) > 1 and hasattr(db[request.args[1]], \'_primarykey\'):\n        regex = re.compile(\'(?P<table>\\w+)\\.(?P<field>\\w+)=(?P<value>.+)\')\n    if request.vars.query:\n        match = regex.match(request.vars.query)\n        if match:\n            request.vars.query = \'%s.%s.%s==%s\' % (request.args[0],\n                                                   match.group(\'table\'), match.group(\'field\'),\n                                                   match.group(\'value\'))\n    else:\n        request.vars.query = session.last_query\n    query = get_query(request)\n    if request.vars.start:\n        start = int(request.vars.start)\n    else:\n        start = 0\n    nrows = 0\n\n    step = 100\n    fields = []\n\n    if is_imap:\n        step = 3\n \n    stop = start + step\n\n    table = None\n    rows = []\n    orderby = request.vars.orderby\n    if orderby:\n        orderby = dbname + \'.\' + orderby\n        if orderby == session.last_orderby:\n            if orderby[0] == \'~\':\n                orderby = orderby[1:]\n            else:\n                orderby = \'~\' + orderby\n    session.last_orderby = orderby\n    session.last_query = request.vars.query\n    form = FORM(TABLE(TR(T(\'Query:\'), \'\', INPUT(_style=\'width:400px\',\n                _name=\'query\', _value=request.vars.query or \'\',\n                requires=IS_NOT_EMPTY(\n                    error_message=T("Cannot be empty")))), TR(T(\'Update:\'),\n                INPUT(_name=\'update_check\', _type=\'checkbox\',\n                value=False), INPUT(_style=\'width:400px\',\n                _name=\'update_fields\', _value=request.vars.update_fields\n                                    or \'\')), TR(T(\'Delete:\'), INPUT(_name=\'delete_check\',\n                _class=\'delete\', _type=\'checkbox\', value=False), \'\'),\n                TR(\'\', \'\', INPUT(_type=\'submit\', _value=T(\'submit\')))),\n                _action=URL(r=request, args=request.args))\n\n    tb = None\n    if form.accepts(request.vars, formname=None):\n        regex = re.compile(request.args[0] + \'\\.(?P<table>\\w+)\\..+\')\n        match = regex.match(form.vars.query.strip())\n        if match:\n            table = match.group(\'table\')\n        try:\n            nrows = db(query, ignore_common_filters=True).count()\n            if form.vars.update_check and form.vars.update_fields:\n                db(query, ignore_common_filters=True).update(\n                    **eval_in_global_env(\'dict(%s)\' % form.vars.update_fields))\n                response.flash = T(\'%s %%{row} updated\', nrows)\n            elif form.vars.delete_check:\n                db(query, ignore_common_filters=True).delete()\n                response.flash = T(\'%s %%{row} deleted\', nrows)\n            nrows = db(query, ignore_common_filters=True).count()\n\n            if is_imap:\n                fields = [db[table][name] for name in\n                    ("id", "uid", "created", "to",\n                     "sender", "subject")]\n            if orderby:\n                rows = db(query, ignore_common_filters=True).select(\n                              *fields, limitby=(start, stop),\n                              orderby=eval_in_global_env(orderby))\n            else:\n                rows = db(query, ignore_common_filters=True).select(\n                    *fields, limitby=(start, stop))\n        except Exception, e:\n            import traceback\n            tb = traceback.format_exc()\n            (rows, nrows) = ([], 0)\n            response.flash = DIV(T(\'Invalid Query\'), PRE(str(e)))\n    # begin handle upload csv\n    csv_table = table or request.vars.table\n    if csv_table:\n        formcsv = FORM(str(T(\'or import from csv file\')) + " ",\n                       INPUT(_type=\'file\', _name=\'csvfile\'),\n                       INPUT(_type=\'hidden\', _value=csv_table, _name=\'table\'),\n                       INPUT(_type=\'submit\', _value=T(\'import\')))\n    else:\n        formcsv = None\n    if formcsv and formcsv.process().accepted:\n        try:\n            import_csv(db[request.vars.table],\n                       request.vars.csvfile.file)\n            response.flash = T(\'data uploaded\')\n        except Exception, e:\n            response.flash = DIV(T(\'unable to parse csv file\'), PRE(str(e)))\n    # end handle upload csv\n\n    return dict(\n        form=form,\n        table=table,\n        start=start,\n        stop=stop,\n        step=step,\n        nrows=nrows,\n        rows=rows,\n        query=request.vars.query,\n        formcsv=formcsv,\n        tb=tb\n    )\n\n\n# ##########################################################\n# ## edit delete one record\n# ###########################################################\n\n\ndef update():\n    (db, table) = get_table(request)\n    keyed = hasattr(db[table], \'_primarykey\')\n    record = None\n    db[table]._common_filter = None\n    if keyed:\n        key = [f for f in request.vars if f in db[table]._primarykey]\n        if key:\n            record = db(db[table][key[0]] == request.vars[key[\n                        0]]).select().first()\n    else:\n        record = db(db[table].id == request.args(\n            2)).select().first()\n\n    if not record:\n        qry = query_by_table_type(table, db)\n        session.flash = T(\'record does not exist\')\n        redirect(URL(\'select\', args=request.args[:1],\n                     vars=dict(query=qry)))\n\n    if keyed:\n        for k in db[table]._primarykey:\n            db[table][k].writable = False\n\n    form = SQLFORM(\n        db[table], record, deletable=True, delete_label=T(\'Check to delete\'),\n        ignore_rw=ignore_rw and not keyed,\n        linkto=URL(\'select\',\n                   args=request.args[:1]), upload=URL(r=request,\n                                                      f=\'download\', args=request.args[:1]))\n\n    if form.accepts(request.vars, session):\n        session.flash = T(\'done!\')\n        qry = query_by_table_type(table, db)\n        redirect(URL(\'select\', args=request.args[:1],\n                 vars=dict(query=qry)))\n    return dict(form=form, table=db[table])\n\n\n# ##########################################################\n# ## get global variables\n# ###########################################################\n\n\ndef state():\n    return dict()\n\n\ndef ccache():\n    if is_gae:\n        form = FORM(\n            P(TAG.BUTTON(T("Clear CACHE?"), _type="submit", _name="yes", _value="yes")))\n    else:\n        cache.ram.initialize()\n        cache.disk.initialize()\n\n        form = FORM(\n            P(TAG.BUTTON(\n                T("Clear CACHE?"), _type="submit", _name="yes", _value="yes")),\n            P(TAG.BUTTON(\n                T("Clear RAM"), _type="submit", _name="ram", _value="ram")),\n            P(TAG.BUTTON(\n                T("Clear DISK"), _type="submit", _name="disk", _value="disk")),\n        )\n\n    if form.accepts(request.vars, session):\n        session.flash = ""\n        if is_gae:\n            if request.vars.yes:\n                cache.ram.clear()\n                session.flash += T("Cache Cleared")\n        else:\n            clear_ram = False\n            clear_disk = False\n            if request.vars.yes:\n                clear_ram = clear_disk = True\n            if request.vars.ram:\n                clear_ram = True\n            if request.vars.disk:\n                clear_disk = True\n            if clear_ram:\n                cache.ram.clear()\n                session.flash += T("Ram Cleared")\n            if clear_disk:\n                cache.disk.clear()\n                session.flash += T("Disk Cleared")\n        redirect(URL(r=request))\n\n    try:\n        from guppy import hpy\n        hp = hpy()\n    except ImportError:\n        hp = False\n\n    import shelve\n    import os\n    import copy\n    import time\n    import math\n    from gluon import portalocker\n\n    ram = {\n        \'entries\': 0,\n        \'bytes\': 0,\n        \'objects\': 0,\n        \'hits\': 0,\n        \'misses\': 0,\n        \'ratio\': 0,\n        \'oldest\': time.time(),\n        \'keys\': []\n    }\n    \n    disk = copy.copy(ram)\n    total = copy.copy(ram)\n    disk[\'keys\'] = []\n    total[\'keys\'] = []\n\n    def GetInHMS(seconds):\n        hours = math.floor(seconds / 3600)\n        seconds -= hours * 3600\n        minutes = math.floor(seconds / 60)\n        seconds -= minutes * 60\n        seconds = math.floor(seconds)\n\n        return (hours, minutes, seconds)\n\n    if is_gae:\n        gae_stats = cache.ram.client.get_stats()\n        try:\n            gae_stats[\'ratio\'] = ((gae_stats[\'hits\'] * 100) /\n                (gae_stats[\'hits\'] + gae_stats[\'misses\']))\n        except ZeroDivisionError:\n            gae_stats[\'ratio\'] = T("?")\n        gae_stats[\'oldest\'] = GetInHMS(time.time() - gae_stats[\'oldest_item_age\'])\n        total.update(gae_stats)\n    else:\n        # get ram stats directly from the cache object\n        ram_stats = cache.ram.stats[request.application]\n        ram[\'hits\'] = ram_stats[\'hit_total\'] - ram_stats[\'misses\']\n        ram[\'misses\'] = ram_stats[\'misses\']\n        try:\n            ram[\'ratio\'] = ram[\'hits\'] * 100 / ram_stats[\'hit_total\']\n        except (KeyError, ZeroDivisionError):\n            ram[\'ratio\'] = 0\n\n        for key, value in cache.ram.storage.iteritems():\n            if hp:\n                ram[\'bytes\'] += hp.iso(value[1]).size\n                ram[\'objects\'] += hp.iso(value[1]).count\n            ram[\'entries\'] += 1\n            if value[0] < ram[\'oldest\']:\n                ram[\'oldest\'] = value[0]\n            ram[\'keys\'].append((key, GetInHMS(time.time() - value[0])))\n\n        for key in cache.disk.storage:\n            value = cache.disk.storage[key]\n            if isinstance(value[1], dict):\n                disk[\'hits\'] = value[1][\'hit_total\'] - value[1][\'misses\']\n                disk[\'misses\'] = value[1][\'misses\']\n                try:\n                    disk[\'ratio\'] = disk[\'hits\'] * 100 / value[1][\'hit_total\']\n                except (KeyError, ZeroDivisionError):\n                    disk[\'ratio\'] = 0\n            else:\n                if hp:\n                    disk[\'bytes\'] += hp.iso(value[1]).size\n                    disk[\'objects\'] += hp.iso(value[1]).count\n                disk[\'entries\'] += 1\n                if value[0] < disk[\'oldest\']:\n                    disk[\'oldest\'] = value[0]\n                disk[\'keys\'].append((key, GetInHMS(time.time() - value[0])))\n\n        ram_keys = ram.keys() # [\'hits\', \'objects\', \'ratio\', \'entries\', \'keys\', \'oldest\', \'bytes\', \'misses\']\n        ram_keys.remove(\'ratio\')\n        ram_keys.remove(\'oldest\')\n        for key in ram_keys:\n            total[key] = ram[key] + disk[key]\n\n        try:\n            total[\'ratio\'] = total[\'hits\'] * 100 / (total[\'hits\'] +\n                                                total[\'misses\'])\n        except (KeyError, ZeroDivisionError):\n            total[\'ratio\'] = 0\n\n        if disk[\'oldest\'] < ram[\'oldest\']:\n            total[\'oldest\'] = disk[\'oldest\']\n        else:\n            total[\'oldest\'] = ram[\'oldest\']\n\n        ram[\'oldest\'] = GetInHMS(time.time() - ram[\'oldest\'])\n        disk[\'oldest\'] = GetInHMS(time.time() - disk[\'oldest\'])\n        total[\'oldest\'] = GetInHMS(time.time() - total[\'oldest\'])\n\n    def key_table(keys):\n        return TABLE(\n            TR(TD(B(T(\'Key\'))), TD(B(T(\'Time in Cache (h:m:s)\')))),\n            *[TR(TD(k[0]), TD(\'%02d:%02d:%02d\' % k[1])) for k in keys],\n            **dict(_class=\'cache-keys\',\n                   _style="border-collapse: separate; border-spacing: .5em;"))\n\n    if not is_gae:\n        ram[\'keys\'] = key_table(ram[\'keys\'])\n        disk[\'keys\'] = key_table(disk[\'keys\'])\n        total[\'keys\'] = key_table(total[\'keys\'])\n\n    return dict(form=form, total=total,\n                ram=ram, disk=disk, object_stats=hp != False)\n\n\ndef table_template(table):\n    from gluon.html import TR, TD, TABLE, TAG\n\n    def FONT(*args, **kwargs):\n        return TAG.font(*args, **kwargs)\n\n    def types(field):\n        f_type = field.type\n        if not isinstance(f_type,str):\n            return \' \'\n        elif f_type == \'string\':\n            return field.length\n        elif f_type == \'id\':\n            return B(\'pk\')\n        elif f_type.startswith(\'reference\') or \\\n                f_type.startswith(\'list:reference\'):\n            return B(\'fk\')\n        else:\n            return \' \'\n\n    # This is horribe HTML but the only one graphiz understands\n    rows = []\n    cellpadding = 4\n    color = "#000000"\n    bgcolor = "#FFFFFF"\n    face = "Helvetica"\n    face_bold = "Helvetica Bold"\n    border = 0\n\n    rows.append(TR(TD(FONT(table, _face=face_bold, _color=bgcolor),\n                           _colspan=3, _cellpadding=cellpadding,\n                           _align="center", _bgcolor=color)))\n    for row in db[table]:\n        rows.append(TR(TD(FONT(row.name, _color=color, _face=face_bold),\n                              _align="left", _cellpadding=cellpadding,\n                              _border=border),\n                       TD(FONT(row.type, _color=color, _face=face),\n                               _align="left", _cellpadding=cellpadding,\n                               _border=border),\n                       TD(FONT(types(row), _color=color, _face=face),\n                               _align="center", _cellpadding=cellpadding,\n                               _border=border)))\n    return "< %s >" % TABLE(*rows, **dict(_bgcolor=bgcolor, _border=1,\n                                          _cellborder=0, _cellspacing=0)\n                             ).xml()\n\n\ndef bg_graph_model():\n    graph = pgv.AGraph(layout=\'dot\',  directed=True,  strict=False,  rankdir=\'LR\')\n\n    subgraphs = dict()\n    for tablename in db.tables:\n        if hasattr(db[tablename],\'_meta_graphmodel\'):\n            meta_graphmodel = db[tablename]._meta_graphmodel\n        else:\n            meta_graphmodel = dict(group=request.application, color=\'#ECECEC\')\n\n        group = meta_graphmodel[\'group\'].replace(\' \', \'\')\n        if group not in subgraphs:\n            subgraphs[group] = dict(meta=meta_graphmodel, tables=[])\n        subgraphs[group][\'tables\'].append(tablename)\n\n        graph.add_node(tablename, name=tablename, shape=\'plaintext\',\n                       label=table_template(tablename))\n\n    for n, key in enumerate(subgraphs.iterkeys()):\n        graph.subgraph(nbunch=subgraphs[key][\'tables\'],\n                    name=\'cluster%d\' % n,\n                    style=\'filled\',\n                    color=subgraphs[key][\'meta\'][\'color\'],\n                    label=subgraphs[key][\'meta\'][\'group\'])\n\n    for tablename in db.tables:\n        for field in db[tablename]:\n            f_type = field.type\n            if isinstance(f_type,str) and (\n                f_type.startswith(\'reference\') or\n                f_type.startswith(\'list:reference\')):\n                referenced_table = f_type.split()[1].split(\'.\')[0]\n                n1 = graph.get_node(tablename)\n                n2 = graph.get_node(referenced_table)\n                graph.add_edge(n1, n2, color="#4C4C4C", label=\'\')\n\n    graph.layout()\n    if not request.args:\n        response.headers[\'Content-Type\'] = \'image/png\'\n        return graph.draw(format=\'png\', prog=\'dot\')\n    else:\n        response.headers[\'Content-Disposition\']=\'attachment;filename=graph.%s\'%request.args(0)\n        if request.args(0) == \'dot\':\n            return graph.string()\n        else:\n            return graph.draw(format=request.args(0), prog=\'dot\')\n\ndef graph_model():\n    return dict(databases=databases, pgv=pgv)\n\ndef manage():\n    tables = manager_action[\'tables\']\n    if isinstance(tables[0], str):\n        db = manager_action.get(\'db\', auth.db)\n        db = globals()[db] if isinstance(db, str) else db\n        tables = [db[table] for table in tables]\n    if request.args(0) == \'auth\':\n        auth.table_user()._plural = T(\'Users\')\n        auth.table_group()._plural = T(\'Roles\')\n        auth.table_membership()._plural = T(\'Memberships\')\n        auth.table_permission()._plural = T(\'Permissions\')\n    if request.extension != \'load\':\n        return dict(heading=manager_action.get(\'heading\',\n                    T(\'Manage %(action)s\') % dict(action=request.args(0).replace(\'_\', \' \').title())),\n                    tablenames=[table._tablename for table in tables],\n                    labels=[table._plural.title() for table in tables])\n\n    table = tables[request.args(1, cast=int)]\n    formname = \'%s_grid\' % table._tablename\n    linked_tables = orderby = None\n    if request.args(0) == \'auth\':\n        auth.table_group()._id.readable = \\\n        auth.table_membership()._id.readable = \\\n        auth.table_permission()._id.readable = False\n        auth.table_membership().user_id.label = T(\'User\')\n        auth.table_membership().group_id.label = T(\'Role\')\n        auth.table_permission().group_id.label = T(\'Role\')\n        auth.table_permission().name.label = T(\'Permission\')\n        if table == auth.table_user():\n            linked_tables=[auth.settings.table_membership_name]\n        elif table == auth.table_group():\n            orderby = \'role\' if not request.args(3) or \'.group_id\' not in request.args(3) else None\n        elif table == auth.table_permission():\n            orderby = \'group_id\'\n    kwargs = dict(user_signature=True, maxtextlength=1000,\n                  orderby=orderby, linked_tables=linked_tables)\n    smartgrid_args = manager_action.get(\'smartgrid_args\', {})\n    kwargs.update(**smartgrid_args.get(\'DEFAULT\', {}))\n    kwargs.update(**smartgrid_args.get(table._tablename, {}))\n    grid = SQLFORM.smartgrid(table, args=request.args[:2], formname=formname, **kwargs)\n    return grid\n\ndef hooks():\n    import functools\n    import inspect\n    list_op=[\'_%s_%s\' %(h,m) for h in [\'before\', \'after\'] for m in [\'insert\',\'update\',\'delete\']]\n    tables=[]\n    with_build_it=False\n    for db_str in sorted(databases):\n        db = databases[db_str]\n        for t in db.tables:\n            method_hooks=[]\n            for op in list_op:\n                functions = []\n                for f in getattr(db[t], op):\n                    if hasattr(f, \'__call__\'):\n                        try:\n                            if isinstance(f, (functools.partial)):\n                                f = f.func\n                            filename = inspect.getsourcefile(f)\n                            details = {\'funcname\':f.__name__,\n                                       \'filename\':filename[len(request.folder):] if request.folder in filename else None,\n                                       \'lineno\': inspect.getsourcelines(f)[1]}\n                            if details[\'filename\']: # Built in functions as delete_uploaded_files are not editable\n                                details[\'url\'] = URL(a=\'admin\',c=\'default\',f=\'edit\', args=[request[\'application\'], details[\'filename\']],vars={\'lineno\':details[\'lineno\']})\n                            if details[\'filename\'] or with_build_it:\n                                functions.append(details)\n                        # compiled app and windows build don\'t support code inspection\n                        except:\n                            pass\n                if len(functions):\n                    method_hooks.append({\'name\':op, \'functions\':functions})\n            if len(method_hooks):\n                tables.append({\'name\':"%s.%s" % (db_str,t), \'slug\': IS_SLUG()("%s.%s" % (db_str,t))[0], \'method_hooks\':method_hooks})\n    # Render\n    ul_main = UL(_class=\'nav nav-list\')\n    for t in tables:\n        ul_main.append(A(t[\'name\'], _onclick="collapse(\'a_%s\')" % t[\'slug\']))\n        ul_t = UL(_class=\'nav nav-list\', _id="a_%s" % t[\'slug\'], _style=\'display:none\')\n        for op in t[\'method_hooks\']:\n            ul_t.append(LI (op[\'name\']))\n            ul_t.append(UL([LI(A(f[\'funcname\'], _class="editor_filelink", _href=f[\'url\']if \'url\' in f else None, **{\'_data-lineno\':f[\'lineno\']-1})) for f in op[\'functions\']]))\n        ul_main.append(ul_t)\n    return ul_main\n\nresponse._vars=response._caller(insert)\n'
p7
sS'snapshot'
p8
(dp9
S'exception'
p10
(dp11
S'__module__'
p12
S"'sqlite3'"
p13
sS'__getslice__'
p14
S"<method-wrapper '__getslice__' of OperationalError object>"
p15
sS'__str__'
p16
S"<method-wrapper '__str__' of OperationalError object>"
p17
sS'__reduce__'
p18
S'<built-in method __reduce__ of OperationalError object>'
p19
sS'__dict__'
p20
S'{}'
p21
sS'__sizeof__'
p22
S'<built-in method __sizeof__ of OperationalError object>'
p23
sS'__weakref__'
p24
S'None'
p25
sS'__init__'
p26
S"<method-wrapper '__init__' of OperationalError object>"
p27
sS'__setattr__'
p28
S"<method-wrapper '__setattr__' of OperationalError object>"
p29
sS'__reduce_ex__'
p30
S'<built-in method __reduce_ex__ of OperationalError object>'
p31
sS'__new__'
p32
S'<built-in method __new__ of type object>'
p33
sS'__format__'
p34
S'<built-in method __format__ of OperationalError object>'
p35
sS'__class__'
p36
S"<class 'sqlite3.OperationalError'>"
p37
sS'__doc__'
p38
S'None'
p39
sS'__getitem__'
p40
S"<method-wrapper '__getitem__' of OperationalError object>"
p41
sS'__setstate__'
p42
S'<built-in method __setstate__ of OperationalError object>'
p43
sS'__getattribute__'
p44
S"<method-wrapper '__getattribute__' of OperationalError object>"
p45
sS'args'
p46
S"('no such table: groups',)"
p47
sS'__subclasshook__'
p48
S'<built-in method __subclasshook__ of type object>'
p49
sS'__unicode__'
p50
S'<built-in method __unicode__ of OperationalError object>'
p51
sS'__delattr__'
p52
S"<method-wrapper '__delattr__' of OperationalError object>"
p53
sS'__repr__'
p54
S"<method-wrapper '__repr__' of OperationalError object>"
p55
sS'__hash__'
p56
S"<method-wrapper '__hash__' of OperationalError object>"
p57
ssS'evalue'
p58
S'no such table: groups'
p59
sS'request'
p60
cgluon.html
XML_unpickle
p61
(S's=l\x00\x00<div><table><tr><td style="font-weight:bold;vertical-align:top;">ajax</td><td style="vertical-align:top;">:</td><td><div>False</div></td></tr><tr><td style="font-weight:bold;vertical-align:top;">application</td><td style="vertical-align:top;">:</td><td><div>gapSort</div></td></tr><tr><td style="font-weight:bold;vertical-align:top;">args</td><td style="vertical-align:top;">:</td><td><div><table><tr><td><div>db</div></td></tr><tr><td><div>groups</div></td></tr></table></div></td></tr><tr><td style="font-weight:bold;vertical-align:top;">cid</td><td style="vertical-align:top;">:</td><td><div>None</div></td></tr><tr><td style="font-weight:bold;vertical-align:top;">client</td><td style="vertical-align:top;">:</td><td><div>127.0.0.1</div></td></tr><tr><td style="font-weight:bold;vertical-align:top;">controller</td><td style="vertical-align:top;">:</td><td><div>appadmin</div></td></tr><tr><td style="font-weight:bold;vertical-align:top;">cookies</td><td style="vertical-align:top;">:</td><td><div><table><tr><td style="font-weight:bold;vertical-align:top;">session_id_admin</td><td style="vertical-align:top;">:</td><td><div>127.0.0.1-810766c5-af6c-4500-9fa1-c3cb813d6c12<table><tr><td style="font-weight:bold;vertical-align:top;">comment</td><td style="vertical-align:top;">:</td><td><div></div></td></tr><tr><td style="font-weight:bold;vertical-align:top;">domain</td><td style="vertical-align:top;">:</td><td><div></div></td></tr><tr><td style="font-weight:bold;vertical-align:top;">expires</td><td style="vertical-align:top;">:</td><td><div></div></td></tr><tr><td style="font-weight:bold;vertical-align:top;">httponly</td><td style="vertical-align:top;">:</td><td><div></div></td></tr><tr><td style="font-weight:bold;vertical-align:top;">max-age</td><td style="vertical-align:top;">:</td><td><div></div></td></tr><tr><td style="font-weight:bold;vertical-align:top;">path</td><td style="vertical-align:top;">:</td><td><div></div></td></tr><tr><td style="font-weight:bold;vertical-align:top;">secure</td><td style="vertical-align:top;">:</td><td><div></div></td></tr><tr><td style="font-weight:bold;vertical-align:top;">version</td><td style="vertical-align:top;">:</td><td><div></div></td></tr></table></div></td></tr><tr><td style="font-weight:bold;vertical-align:top;">session_id_gapsort</td><td style="vertical-align:top;">:</td><td><div>127.0.0.1-6598a118-b2e4-4185-b2c9-f673b632aa63<table><tr><td style="font-weight:bold;vertical-align:top;">comment</td><td style="vertical-align:top;">:</td><td><div></div></td></tr><tr><td style="font-weight:bold;vertical-align:top;">domain</td><td style="vertical-align:top;">:</td><td><div></div></td></tr><tr><td style="font-weight:bold;vertical-align:top;">expires</td><td style="vertical-align:top;">:</td><td><div></div></td></tr><tr><td style="font-weight:bold;vertical-align:top;">httponly</td><td style="vertical-align:top;">:</td><td><div></div></td></tr><tr><td style="font-weight:bold;vertical-align:top;">max-age</td><td style="vertical-align:top;">:</td><td><div></div></td></tr><tr><td style="font-weight:bold;vertical-align:top;">path</td><td style="vertical-align:top;">:</td><td><div></div></td></tr><tr><td style="font-weight:bold;vertical-align:top;">secure</td><td style="vertical-align:top;">:</td><td><div></div></td></tr><tr><td style="font-weight:bold;vertical-align:top;">version</td><td style="vertical-align:top;">:</td><td><div></div></td></tr></table></div></td></tr><tr><td style="font-weight:bold;vertical-align:top;">session_id_images</td><td style="vertical-align:top;">:</td><td><div>127.0.0.1-a6449cf9-3289-4513-835a-333eda4fddda<table><tr><td style="font-weight:bold;vertical-align:top;">comment</td><td style="vertical-align:top;">:</td><td><div></div></td></tr><tr><td style="font-weight:bold;vertical-align:top;">domain</td><td style="vertical-align:top;">:</td><td><div></div></td></tr><tr><td style="font-weight:bold;vertical-align:top;">expires</td><td style="vertical-align:top;">:</td><td><div></div></td></tr><tr><td style="font-weight:bold;vertical-align:top;">httponly</td><td style="vertical-align:top;">:</td><td><div></div></td></tr><tr><td style="font-weight:bold;vertical-align:top;">max-age</td><td style="vertical-align:top;">:</td><td><div></div></td></tr><tr><td style="font-weight:bold;vertical-align:top;">path</td><td style="vertical-align:top;">:</td><td><div></div></td></tr><tr><td style="font-weight:bold;vertical-align:top;">secure</td><td style="vertical-align:top;">:</td><td><div></div></td></tr><tr><td style="font-weight:bold;vertical-align:top;">version</td><td style="vertical-align:top;">:</td><td><div></div></td></tr></table></div></td></tr><tr><td style="font-weight:bold;vertical-align:top;">session_id_welcome</td><td style="vertical-align:top;">:</td><td><div>127.0.0.1-b7e0d624-4b8c-4a16-8477-af4fb05e4fa4<table><tr><td style="font-weight:bold;vertical-align:top;">comment</td><td style="vertical-align:top;">:</td><td><div></div></td></tr><tr><td style="font-weight:bold;vertical-align:top;">domain</td><td style="vertical-align:top;">:</td><td><div></div></td></tr><tr><td style="font-weight:bold;vertical-align:top;">expires</td><td style="vertical-align:top;">:</td><td><div></div></td></tr><tr><td style="font-weight:bold;vertical-align:top;">httponly</td><td style="vertical-align:top;">:</td><td><div></div></td></tr><tr><td style="font-weight:bold;vertical-align:top;">max-age</td><td style="vertical-align:top;">:</td><td><div></div></td></tr><tr><td style="font-weight:bold;vertical-align:top;">path</td><td style="vertical-align:top;">:</td><td><div></div></td></tr><tr><td style="font-weight:bold;vertical-align:top;">secure</td><td style="vertical-align:top;">:</td><td><div></div></td></tr><tr><td style="font-weight:bold;vertical-align:top;">version</td><td style="vertical-align:top;">:</td><td><div></div></td></tr></table></div></td></tr></table></div></td></tr><tr><td style="font-weight:bold;vertical-align:top;">env</td><td style="vertical-align:top;">:</td><td><div><table><tr><td style="font-weight:bold;vertical-align:top;">CONTENT_LENGTH</td><td style="vertical-align:top;">:</td><td><div>379</div></td></tr><tr><td style="font-weight:bold;vertical-align:top;">CONTENT_TYPE</td><td style="vertical-align:top;">:</td><td><div>multipart/form-data; boundary=----WebKitFormBoundaryPhgCPxQEiWqiwyI5</div></td></tr><tr><td style="font-weight:bold;vertical-align:top;">HTTP_ACCEPT</td><td style="vertical-align:top;">:</td><td><div>text/html,application/xhtml+xml,application/xml;q=0.9,image/webp,*/*;q=0.8</div></td></tr><tr><td style="font-weight:bold;vertical-align:top;">HTTP_ACCEPT_ENCODING</td><td style="vertical-align:top;">:</td><td><div>gzip, deflate</div></td></tr><tr><td style="font-weight:bold;vertical-align:top;">HTTP_ACCEPT_LANGUAGE</td><td style="vertical-align:top;">:</td><td><div>en-US,en;q=0.8</div></td></tr><tr><td style="font-weight:bold;vertical-align:top;">HTTP_CACHE_CONTROL</td><td style="vertical-align:top;">:</td><td><div>max-age=0</div></td></tr><tr><td style="font-weight:bold;vertical-align:top;">HTTP_CONNECTION</td><td style="vertical-align:top;">:</td><td><div>keep-alive</div></td></tr><tr><td style="font-weight:bold;vertical-align:top;">HTTP_CONTENT_LENGTH</td><td style="vertical-align:top;">:</td><td><div>379</div></td></tr><tr><td style="font-weight:bold;vertical-align:top;">HTTP_CONTENT_TYPE</td><td style="vertical-align:top;">:</td><td><div>multipart/form-data; boundary=----WebKitFormBoundaryPhgCPxQEiWqiwyI5</div></td></tr><tr><td style="font-weight:bold;vertical-align:top;">HTTP_COOKIE</td><td style="vertical-align:top;">:</td><td><div>_ga=GA1.1.1539661291.1455757694; session_id_welcome=127.0.0.1-b7e0d624-4b8c-4a16-8477-af4fb05e4fa4; session_id_images=127.0.0.1-a6449cf9-3289-4513-835a-333eda4fddda; session_id_admin=127.0.0.1-810766c5-af6c-4500-9fa1-c3cb813d6c12; session_id_gapsort=127.0.0.1-6598a118-b2e4-4185-b2c9-f673b632aa63</div></td></tr><tr><td style="font-weight:bold;vertical-align:top;">HTTP_DNT</td><td style="vertical-align:top;">:</td><td><div>1</div></td></tr><tr><td style="font-weight:bold;vertical-align:top;">HTTP_HOST</td><td style="vertical-align:top;">:</td><td><div>127.0.0.1:8000</div></td></tr><tr><td style="font-weight:bold;vertical-align:top;">HTTP_ORIGIN</td><td style="vertical-align:top;">:</td><td><div>http://127.0.0.1:8000</div></td></tr><tr><td style="font-weight:bold;vertical-align:top;">HTTP_REFERER</td><td style="vertical-align:top;">:</td><td><div>http://127.0.0.1:8000/gapSort/appadmin/insert/db/groups</div></td></tr><tr><td style="font-weight:bold;vertical-align:top;">HTTP_UPGRADE_INSECURE_REQUESTS</td><td style="vertical-align:top;">:</td><td><div>1</div></td></tr><tr><td style="font-weight:bold;vertical-align:top;">HTTP_USER_AGENT</td><td style="vertical-align:top;">:</td><td><div>Mozilla/5.0 (Macintosh; Intel Mac OS X 10_12_0) AppleWebKit/537.36 (KHTML, like Gecko) Chrome/53.0.2785.143 Safari/537.36</div></td></tr><tr><td style="font-weight:bold;vertical-align:top;">PATH_INFO</td><td style="vertical-align:top;">:</td><td><div>/gapSort/appadmin/insert/db/groups</div></td></tr><tr><td style="font-weight:bold;vertical-align:top;">QUERY_STRING</td><td style="vertical-align:top;">:</td><td><div></div></td></tr><tr><td style="font-weight:bold;vertical-align:top;">REMOTE_ADDR</td><td style="vertical-align:top;">:</td><td><div>127.0.0.1</div></td></tr><tr><td style="font-weight:bold;vertical-align:top;">REMOTE_PORT</td><td style="vertical-align:top;">:</td><td><div>50604</div></td></tr><tr><td style="font-weight:bold;vertical-align:top;">REQUEST_METHOD</td><td style="vertical-align:top;">:</td><td><div>POST</div></td></tr><tr><td style="font-weight:bold;vertical-align:top;">SCRIPT_NAME</td><td style="vertical-align:top;">:</td><td><div></div></td></tr><tr><td style="font-weight:bold;vertical-align:top;">SERVER_NAME</td><td style="vertical-align:top;">:</td><td><div>Bowens-MacBook-Pro.local</div></td></tr><tr><td style="font-weight:bold;vertical-align:top;">SERVER_PORT</td><td style="vertical-align:top;">:</td><td><div>8000</div></td></tr><tr><td style="font-weight:bold;vertical-align:top;">SERVER_PROTOCOL</td><td style="vertical-align:top;">:</td><td><div>HTTP/1.1</div></td></tr><tr><td style="font-weight:bold;vertical-align:top;">SERVER_SOFTWARE</td><td style="vertical-align:top;">:</td><td><div>Rocket 1.2.6</div></td></tr><tr><td style="font-weight:bold;vertical-align:top;">app_folders</td><td style="vertical-align:top;">:</td><td><div>set([&#x27;/Applications/web2py/web2py.app/Contents/Resources/applications/images/&#x27;, &#x27;/Applications/web2py/web2py.app/Contents/Resources/applications/welcome/&#x27;, &#x27;/Applications/web2py/web2py.app/Contents/Resources/applications/gapSort/&#x27;, &#x27;/Applications/web2py/web2py.app/Contents/Resources/applications/admin/&#x27;])</div></td></tr><tr><td style="font-weight:bold;vertical-align:top;">applications_parent</td><td style="vertical-align:top;">:</td><td><div>/Applications/web2py/web2py.app/Contents/Resources</div></td></tr><tr><td style="font-weight:bold;vertical-align:top;">cmd_args</td><td style="vertical-align:top;">:</td><td><div><table></table></div></td></tr><tr><td style="font-weight:bold;vertical-align:top;">cmd_options</td><td style="vertical-align:top;">:</td><td><div>&lt;Values at 0x10324a680: {&#x27;verbose&#x27;: False, &#x27;ip&#x27;: &#x27;127.0.0.1&#x27;, &#x27;debuglevel&#x27;: 30, &#x27;with_scheduler&#x27;: False, &#x27;shutdown_timeout&#x27;: 5, &#x27;taskbar&#x27;: False, &#x27;with_coverage&#x27;: False, &#x27;pid_filename&#x27;: &#x27;httpserver.pid&#x27;, &#x27;maxthreads&#x27;: None, &#x27;softcron&#x27;: False, &#x27;server_name&#x27;: &#x27;Bowens-MacBook-Pro.local&#x27;, &#x27;bpython&#x27;: False, &#x27;nogui&#x27;: False, &#x27;port&#x27;: 8000, &#x27;print_errors&#x27;: False, &#x27;extcron&#x27;: False, &#x27;runcron&#x27;: False, &#x27;run_system_tests&#x27;: False, &#x27;test&#x27;: None, &#x27;folder&#x27;: &#x27;/Applications/web2py/web2py.app/Contents/Resources&#x27;, &#x27;config&#x27;: &#x27;&#x27;, &#x27;minthreads&#x27;: None, &#x27;shell&#x27;: None, &#x27;run&#x27;: &#x27;&#x27;, &#x27;log_filename&#x27;: &#x27;httpserver.log&#x27;, &#x27;profiler_dir&#x27;: None, &#x27;args&#x27;: [&#x27;&#x27;], &#x27;socket_timeout&#x27;: 5, &#x27;ssl_ca_certificate&#x27;: None, &#x27;scheduler&#x27;: None, &#x27;interfaces&#x27;: None, &#x27;ssl_private_key&#x27;: &#x27;&#x27;, &#x27;gae&#x27;: None, &#x27;password&#x27;: &#x27;******&#x27;, &#x27;request_queue_size&#x27;: 5, &#x27;ssl_certificate&#x27;: &#x27;&#x27;, &#x27;cronjob&#x27;: False, &#x27;numthreads&#x27;: None, &#x27;quiet&#x27;: False, &#x27;import_models&#x27;: False, &#x27;timeout&#x27;: 10, &#x27;plain&#x27;: False, &#x27;nobanner&#x27;: False}&gt;</div></td></tr><tr><td style="font-weight:bold;vertical-align:top;">content_length</td><td style="vertical-align:top;">:</td><td><div>379</div></td></tr><tr><td style="font-weight:bold;vertical-align:top;">content_type</td><td style="vertical-align:top;">:</td><td><div>multipart/form-data; boundary=----WebKitFormBoundaryPhgCPxQEiWqiwyI5</div></td></tr><tr><td style="font-weight:bold;vertical-align:top;">db_sessions</td><td style="vertical-align:top;">:</td><td><div>set([])</div></td></tr><tr><td style="font-weight:bold;vertical-align:top;">debugging</td><td style="vertical-align:top;">:</td><td><div>True</div></td></tr><tr><td style="font-weight:bold;vertical-align:top;">gluon_parent</td><td style="vertical-align:top;">:</td><td><div>/Applications/web2py/web2py.app/Contents/Resources</div></td></tr><tr><td style="font-weight:bold;vertical-align:top;">http_accept</td><td style="vertical-align:top;">:</td><td><div>text/html,application/xhtml+xml,application/xml;q=0.9,image/webp,*/*;q=0.8</div></td></tr><tr><td style="font-weight:bold;vertical-align:top;">http_accept_encoding</td><td style="vertical-align:top;">:</td><td><div>gzip, deflate</div></td></tr><tr><td style="font-weight:bold;vertical-align:top;">http_accept_language</td><td style="vertical-align:top;">:</td><td><div>en-US,en;q=0.8</div></td></tr><tr><td style="font-weight:bold;vertical-align:top;">http_cache_control</td><td style="vertical-align:top;">:</td><td><div>max-age=0</div></td></tr><tr><td style="font-weight:bold;vertical-align:top;">http_connection</td><td style="vertical-align:top;">:</td><td><div>keep-alive</div></td></tr><tr><td style="font-weight:bold;vertical-align:top;">http_content_length</td><td style="vertical-align:top;">:</td><td><div>379</div></td></tr><tr><td style="font-weight:bold;vertical-align:top;">http_content_type</td><td style="vertical-align:top;">:</td><td><div>multipart/form-data; boundary=----WebKitFormBoundaryPhgCPxQEiWqiwyI5</div></td></tr><tr><td style="font-weight:bold;vertical-align:top;">http_cookie</td><td style="vertical-align:top;">:</td><td><div>_ga=GA1.1.1539661291.1455757694; session_id_welcome=127.0.0.1-b7e0d624-4b8c-4a16-8477-af4fb05e4fa4; session_id_images=127.0.0.1-a6449cf9-3289-4513-835a-333eda4fddda; session_id_admin=127.0.0.1-810766c5-af6c-4500-9fa1-c3cb813d6c12; session_id_gapsort=127.0.0.1-6598a118-b2e4-4185-b2c9-f673b632aa63</div></td></tr><tr><td style="font-weight:bold;vertical-align:top;">http_dnt</td><td style="vertical-align:top;">:</td><td><div>1</div></td></tr><tr><td style="font-weight:bold;vertical-align:top;">http_host</td><td style="vertical-align:top;">:</td><td><div>127.0.0.1:8000</div></td></tr><tr><td style="font-weight:bold;vertical-align:top;">http_origin</td><td style="vertical-align:top;">:</td><td><div>http://127.0.0.1:8000</div></td></tr><tr><td style="font-weight:bold;vertical-align:top;">http_referer</td><td style="vertical-align:top;">:</td><td><div>http://127.0.0.1:8000/gapSort/appadmin/insert/db/groups</div></td></tr><tr><td style="font-weight:bold;vertical-align:top;">http_upgrade_insecure_requests</td><td style="vertical-align:top;">:</td><td><div>1</div></td></tr><tr><td style="font-weight:bold;vertical-align:top;">http_user_agent</td><td style="vertical-align:top;">:</td><td><div>Mozilla/5.0 (Macintosh; Intel Mac OS X 10_12_0) AppleWebKit/537.36 (KHTML, like Gecko) Chrome/53.0.2785.143 Safari/537.36</div></td></tr><tr><td style="font-weight:bold;vertical-align:top;">is_jython</td><td style="vertical-align:top;">:</td><td><div>False</div></td></tr><tr><td style="font-weight:bold;vertical-align:top;">is_pypy</td><td style="vertical-align:top;">:</td><td><div>False</div></td></tr><tr><td style="font-weight:bold;vertical-align:top;">is_source</td><td style="vertical-align:top;">:</td><td><div>True</div></td></tr><tr><td style="font-weight:bold;vertical-align:top;">local_hosts</td><td style="vertical-align:top;">:</td><td><div><table><tr><td><div>Bowens-MacBook-Pro.local</div></td></tr><tr><td><div>::1</div></td></tr><tr><td><div>::ffff:127.0.0.1</div></td></tr><tr><td><div>127.0.0.1</div></td></tr></table></div></td></tr><tr><td style="font-weight:bold;vertical-align:top;">path_info</td><td style="vertical-align:top;">:</td><td><div>/gapSort/appadmin/insert/db/groups</div></td></tr><tr><td style="font-weight:bold;vertical-align:top;">query_string</td><td style="vertical-align:top;">:</td><td><div></div></td></tr><tr><td style="font-weight:bold;vertical-align:top;">remote_addr</td><td style="vertical-align:top;">:</td><td><div>127.0.0.1</div></td></tr><tr><td style="font-weight:bold;vertical-align:top;">remote_port</td><td style="vertical-align:top;">:</td><td><div>50604</div></td></tr><tr><td style="font-weight:bold;vertical-align:top;">request_method</td><td style="vertical-align:top;">:</td><td><div>POST</div></td></tr><tr><td style="font-weight:bold;vertical-align:top;">request_uri</td><td style="vertical-align:top;">:</td><td><div>/gapSort/appadmin/insert/db/groups</div></td></tr><tr><td style="font-weight:bold;vertical-align:top;">script_name</td><td style="vertical-align:top;">:</td><td><div></div></td></tr><tr><td style="font-weight:bold;vertical-align:top;">server_name</td><td style="vertical-align:top;">:</td><td><div>Bowens-MacBook-Pro.local</div></td></tr><tr><td style="font-weight:bold;vertical-align:top;">server_port</td><td style="vertical-align:top;">:</td><td><div>8000</div></td></tr><tr><td style="font-weight:bold;vertical-align:top;">server_protocol</td><td style="vertical-align:top;">:</td><td><div>HTTP/1.1</div></td></tr><tr><td style="font-weight:bold;vertical-align:top;">server_software</td><td style="vertical-align:top;">:</td><td><div>Rocket 1.2.6</div></td></tr><tr><td style="font-weight:bold;vertical-align:top;">web2py_path</td><td style="vertical-align:top;">:</td><td><div>/Applications/web2py/web2py.app/Contents/Resources</div></td></tr><tr><td style="font-weight:bold;vertical-align:top;">web2py_version</td><td style="vertical-align:top;">:</td><td><div>2.14.6-stable+timestamp.2016.05.10.00.21.47</div></td></tr><tr><td style="font-weight:bold;vertical-align:top;">wsgi.errors</td><td style="vertical-align:top;">:</td><td><div>&lt;open file &#x27;&lt;stderr&gt;&#x27;, mode &#x27;w&#x27; at 0x101a6b1e0&gt;</div></td></tr><tr><td style="font-weight:bold;vertical-align:top;">wsgi.file_wrapper</td><td style="vertical-align:top;">:</td><td><div>&lt;class wsgiref.util.FileWrapper at 0x1029aa120&gt;</div></td></tr><tr><td style="font-weight:bold;vertical-align:top;">wsgi.input</td><td style="vertical-align:top;">:</td><td><div>&lt;socket._fileobject object at 0x109a1d050&gt;</div></td></tr><tr><td style="font-weight:bold;vertical-align:top;">wsgi.multiprocess</td><td style="vertical-align:top;">:</td><td><div>False</div></td></tr><tr><td style="font-weight:bold;vertical-align:top;">wsgi.multithread</td><td style="vertical-align:top;">:</td><td><div>True</div></td></tr><tr><td style="font-weight:bold;vertical-align:top;">wsgi.run_once</td><td style="vertical-align:top;">:</td><td><div>False</div></td></tr><tr><td style="font-weight:bold;vertical-align:top;">wsgi.url_scheme</td><td style="vertical-align:top;">:</td><td><div>http</div></td></tr><tr><td style="font-weight:bold;vertical-align:top;">wsgi.version</td><td style="vertical-align:top;">:</td><td><div><table><tr><td><div>1</div></td></tr><tr><td><div>0</div></td></tr></table></div></td></tr><tr><td style="font-weight:bold;vertical-align:top;">wsgi_errors</td><td style="vertical-align:top;">:</td><td><div>&lt;open file &#x27;&lt;stderr&gt;&#x27;, mode &#x27;w&#x27; at 0x101a6b1e0&gt;</div></td></tr><tr><td style="font-weight:bold;vertical-align:top;">wsgi_file_wrapper</td><td style="vertical-align:top;">:</td><td><div>&lt;class wsgiref.util.FileWrapper at 0x1029aa120&gt;</div></td></tr><tr><td style="font-weight:bold;vertical-align:top;">wsgi_input</td><td style="vertical-align:top;">:</td><td><div>&lt;socket._fileobject object at 0x109a1d050&gt;</div></td></tr><tr><td style="font-weight:bold;vertical-align:top;">wsgi_multiprocess</td><td style="vertical-align:top;">:</td><td><div>False</div></td></tr><tr><td style="font-weight:bold;vertical-align:top;">wsgi_multithread</td><td style="vertical-align:top;">:</td><td><div>True</div></td></tr><tr><td style="font-weight:bold;vertical-align:top;">wsgi_run_once</td><td style="vertical-align:top;">:</td><td><div>False</div></td></tr><tr><td style="font-weight:bold;vertical-align:top;">wsgi_url_scheme</td><td style="vertical-align:top;">:</td><td><div>http</div></td></tr><tr><td style="font-weight:bold;vertical-align:top;">wsgi_version</td><td style="vertical-align:top;">:</td><td><div><table><tr><td><div>1</div></td></tr><tr><td><div>0</div></td></tr></table></div></td></tr></table></div></td></tr><tr><td style="font-weight:bold;vertical-align:top;">extension</td><td style="vertical-align:top;">:</td><td><div>html</div></td></tr><tr><td style="font-weight:bold;vertical-align:top;">folder</td><td style="vertical-align:top;">:</td><td><div>/Applications/web2py/web2py.app/Contents/Resources/applications/gapSort/</div></td></tr><tr><td style="font-weight:bold;vertical-align:top;">function</td><td style="vertical-align:top;">:</td><td><div>insert</div></td></tr><tr><td style="font-weight:bold;vertical-align:top;">global_settings</td><td style="vertical-align:top;">:</td><td><div><table><tr><td style="font-weight:bold;vertical-align:top;">app_folders</td><td style="vertical-align:top;">:</td><td><div>set([&#x27;/Applications/web2py/web2py.app/Contents/Resources/applications/images/&#x27;, &#x27;/Applications/web2py/web2py.app/Contents/Resources/applications/welcome/&#x27;, &#x27;/Applications/web2py/web2py.app/Contents/Resources/applications/gapSort/&#x27;, &#x27;/Applications/web2py/web2py.app/Contents/Resources/applications/admin/&#x27;])</div></td></tr><tr><td style="font-weight:bold;vertical-align:top;">applications_parent</td><td style="vertical-align:top;">:</td><td><div>/Applications/web2py/web2py.app/Contents/Resources</div></td></tr><tr><td style="font-weight:bold;vertical-align:top;">cmd_args</td><td style="vertical-align:top;">:</td><td><div><table></table></div></td></tr><tr><td style="font-weight:bold;vertical-align:top;">cmd_options</td><td style="vertical-align:top;">:</td><td><div>&lt;Values at 0x10324a680: {&#x27;verbose&#x27;: False, &#x27;ip&#x27;: &#x27;127.0.0.1&#x27;, &#x27;debuglevel&#x27;: 30, &#x27;with_scheduler&#x27;: False, &#x27;shutdown_timeout&#x27;: 5, &#x27;taskbar&#x27;: False, &#x27;with_coverage&#x27;: False, &#x27;pid_filename&#x27;: &#x27;httpserver.pid&#x27;, &#x27;maxthreads&#x27;: None, &#x27;softcron&#x27;: False, &#x27;server_name&#x27;: &#x27;Bowens-MacBook-Pro.local&#x27;, &#x27;bpython&#x27;: False, &#x27;nogui&#x27;: False, &#x27;port&#x27;: 8000, &#x27;print_errors&#x27;: False, &#x27;extcron&#x27;: False, &#x27;runcron&#x27;: False, &#x27;run_system_tests&#x27;: False, &#x27;test&#x27;: None, &#x27;folder&#x27;: &#x27;/Applications/web2py/web2py.app/Contents/Resources&#x27;, &#x27;config&#x27;: &#x27;&#x27;, &#x27;minthreads&#x27;: None, &#x27;shell&#x27;: None, &#x27;run&#x27;: &#x27;&#x27;, &#x27;log_filename&#x27;: &#x27;httpserver.log&#x27;, &#x27;profiler_dir&#x27;: None, &#x27;args&#x27;: [&#x27;&#x27;], &#x27;socket_timeout&#x27;: 5, &#x27;ssl_ca_certificate&#x27;: None, &#x27;scheduler&#x27;: None, &#x27;interfaces&#x27;: None, &#x27;ssl_private_key&#x27;: &#x27;&#x27;, &#x27;gae&#x27;: None, &#x27;password&#x27;: &#x27;******&#x27;, &#x27;request_queue_size&#x27;: 5, &#x27;ssl_certificate&#x27;: &#x27;&#x27;, &#x27;cronjob&#x27;: False, &#x27;numthreads&#x27;: None, &#x27;quiet&#x27;: False, &#x27;import_models&#x27;: False, &#x27;timeout&#x27;: 10, &#x27;plain&#x27;: False, &#x27;nobanner&#x27;: False}&gt;</div></td></tr><tr><td style="font-weight:bold;vertical-align:top;">db_sessions</td><td style="vertical-align:top;">:</td><td><div>set([])</div></td></tr><tr><td style="font-weight:bold;vertical-align:top;">debugging</td><td style="vertical-align:top;">:</td><td><div>True</div></td></tr><tr><td style="font-weight:bold;vertical-align:top;">gluon_parent</td><td style="vertical-align:top;">:</td><td><div>/Applications/web2py/web2py.app/Contents/Resources</div></td></tr><tr><td style="font-weight:bold;vertical-align:top;">is_jython</td><td style="vertical-align:top;">:</td><td><div>False</div></td></tr><tr><td style="font-weight:bold;vertical-align:top;">is_pypy</td><td style="vertical-align:top;">:</td><td><div>False</div></td></tr><tr><td style="font-weight:bold;vertical-align:top;">is_source</td><td style="vertical-align:top;">:</td><td><div>True</div></td></tr><tr><td style="font-weight:bold;vertical-align:top;">local_hosts</td><td style="vertical-align:top;">:</td><td><div><table><tr><td><div>Bowens-MacBook-Pro.local</div></td></tr><tr><td><div>::1</div></td></tr><tr><td><div>::ffff:127.0.0.1</div></td></tr><tr><td><div>127.0.0.1</div></td></tr></table></div></td></tr><tr><td style="font-weight:bold;vertical-align:top;">web2py_version</td><td style="vertical-align:top;">:</td><td><div>2.14.6-stable+timestamp.2016.05.10.00.21.47</div></td></tr></table></div></td></tr><tr><td style="font-weight:bold;vertical-align:top;">is_https</td><td style="vertical-align:top;">:</td><td><div>False</div></td></tr><tr><td style="font-weight:bold;vertical-align:top;">is_local</td><td style="vertical-align:top;">:</td><td><div>True</div></td></tr><tr><td style="font-weight:bold;vertical-align:top;">is_restful</td><td style="vertical-align:top;">:</td><td><div>False</div></td></tr><tr><td style="font-weight:bold;vertical-align:top;">is_scheduler</td><td style="vertical-align:top;">:</td><td><div>False</div></td></tr><tr><td style="font-weight:bold;vertical-align:top;">is_shell</td><td style="vertical-align:top;">:</td><td><div>False</div></td></tr><tr><td style="font-weight:bold;vertical-align:top;">now</td><td style="vertical-align:top;">:</td><td><div>datetime.datetime(2016, 10, 12, 22, 55, 15, 917243)</div></td></tr><tr><td style="font-weight:bold;vertical-align:top;">raw_args</td><td style="vertical-align:top;">:</td><td><div>db/groups</div></td></tr><tr><td style="font-weight:bold;vertical-align:top;">raw_extension</td><td style="vertical-align:top;">:</td><td><div>None</div></td></tr><tr><td style="font-weight:bold;vertical-align:top;">url</td><td style="vertical-align:top;">:</td><td><div>/gapSort/appadmin/insert/db/groups</div></td></tr><tr><td style="font-weight:bold;vertical-align:top;">utcnow</td><td style="vertical-align:top;">:</td><td><div>datetime.datetime(2016, 10, 13, 5, 55, 15, 917255)</div></td></tr><tr><td style="font-weight:bold;vertical-align:top;">wsgi</td><td style="vertical-align:top;">:</td><td><div>&lt;gluon.main.LazyWSGI object at 0x1091d4d90&gt;</div></td></tr></table></div>'
tRp62
sS'frames'
p63
(lp64
(dp65
S'file'
p66
S'/Applications/web2py/web2py.app/Contents/Resources/gluon/restricted.py'
p67
sS'dump'
p68
(dp69
S'environment'
p70
S"{'A': <class 'gluon.html.A'>, 'ANY_OF': <class 'gluon.validators.ANY_OF'>, 'ASSIGNJS': <function ASSIGNJS>, 'AppConfig': <function AppConfig>, 'Auth': <class 'gluon.tools.Auth'>, 'B': <class 'gluon.html.B'>, 'BEAUTIFY': <class 'gluon.html.BEAUTIFY'>, 'BODY': <class 'gluon.html.BODY'>, 'BR': <class 'gluon.html.BR'>, 'BUTTON': <class 'gluon.html.BUTTON'>, ...}"
p71
sS'ccode'
p72
S'<code object <module> at 0x109d92230, file "/App...cations/gapSort/controllers/appadmin.py", line 7>'
p73
ssS'lnum'
p74
I227
sS'lines'
p75
(dp76
I224
S'            ccode = code'
p77
sI225
S'        else:'
p78
sI226
S'            ccode = compile2(code, layer)'
p79
sI227
S'        exec ccode in environment'
p80
sI228
S'    except HTTP:'
p81
sI229
S'        raise'
p82
sI230
S'    except RestrictedError:'
p83
sI231
S'        # do not encapsulate (obfuscate) the original RestrictedError'
p84
sI222
S'    try:'
p85
sI223
S'        if isinstance(code, types.CodeType):'
p86
ssS'call'
p87
S"(code='# -*- coding: utf-8 -*-\\n\\n# #####################...ul_main\\n\\nresponse._vars=response._caller(insert)\\n', environment={'A': <class 'gluon.html.A'>, 'ANY_OF': <class 'gluon.validators.ANY_OF'>, 'ASSIGNJS': <function ASSIGNJS>, 'AppConfig': <function AppConfig>, 'Auth': <class 'gluon.tools.Auth'>, 'B': <class 'gluon.html.B'>, 'BEAUTIFY': <class 'gluon.html.BEAUTIFY'>, 'BODY': <class 'gluon.html.BODY'>, 'BR': <class 'gluon.html.BR'>, 'BUTTON': <class 'gluon.html.BUTTON'>, ...}, layer='/Applications/web2py/web2py.app/Contents/Resources/applications/gapSort/controllers/appadmin.py')"
p88
sS'func'
p89
S'restricted'
p90
sa(dp91
g66
S'/Applications/web2py/web2py.app/Contents/Resources/applications/gapSort/controllers/appadmin.py'
p92
sg68
(dp93
sg74
I703
sg75
(dp94
I692
S'    # Render'
p95
sI693
S"    ul_main = UL(_class='nav nav-list')"
p96
sI694
S'    for t in tables:'
p97
sI695
S'        ul_main.append(A(t[\'name\'], _onclick="collapse(\'a_%s\')" % t[\'slug\']))'
p98
sI696
S'        ul_t = UL(_class=\'nav nav-list\', _id="a_%s" % t[\'slug\'], _style=\'display:none\')'
p99
sI697
S"        for op in t['method_hooks']:"
p100
sI698
S"            ul_t.append(LI (op['name']))"
p101
sI699
S'            ul_t.append(UL([LI(A(f[\'funcname\'], _class="editor_filelink", _href=f[\'url\']if \'url\' in f else None, **{\'_data-lineno\':f[\'lineno\']-1})) for f in op[\'functions\']]))'
p102
sI700
S'        ul_main.append(ul_t)'
p103
sI701
S'    return ul_main'
p104
ssg87
S'()'
p105
sg89
S'<module>'
p106
sa(dp107
g66
S'/Applications/web2py/web2py.app/Contents/Resources/gluon/globals.py'
p108
sg68
(dp109
S'self'
p110
S'undefined'
p111
sS'f'
S'<function insert>'
p112
ssg74
I417
sg75
(dp113
I416
S'        self._vars = None'
p114
sI417
S'        self._caller = lambda f: f()'
p115
sI418
S'        self._view_environment = None'
p116
sI419
S'        self._custom_commit = None'
p117
sI420
S'        self._custom_rollback = None'
p118
sI421
S"        self.generic_patterns = ['*']"
p119
sI412
S"        self.flash = ''            # used by the default view layout"
p120
sI413
S'        self.meta = Storage()      # used by web2py_ajax.html'
p121
sI414
S'        self.menu = []             # used by the default view layout'
p122
sI415
S'        self.files = []            # used by web2py_ajax.html'
p123
ssg87
S'(f=<function insert>)'
p124
sg89
S'<lambda>'
p125
sa(dp126
g66
S'/Applications/web2py/web2py.app/Contents/Resources/applications/gapSort/controllers/appadmin.py'
p127
sg68
(dp128
S'global request'
p129
S"<Storage {'_vars': <Storage {'manager': '1', '_f...y.app/Contents/Resources/applications/gapSort/'}>"
p130
sS'request.vars'
p131
S"<Storage {'manager': '1', '_formkey': '59b325b9-...841-fb90363e3aec', '_formname': 'groups/create'}>"
p132
sS'global session'
p133
S"<Storage {'last_query': 'db.groups.id>0', '_auth...ate]': ['03295bee-0261-4fe3-b611-631ec3a6aff5']}>"
p134
sS'form'
p135
S'<gluon.sqlhtml.SQLFORM object>'
p136
sS'form.accepts'
p137
S'<bound method SQLFORM.accepts of <gluon.sqlhtml.SQLFORM object>>'
p138
ssg74
I151
sg75
(dp139
I146
S''
sI147
S''
sI148
S'def insert():'
p140
sI149
S'    (db, table) = get_table(request)'
p141
sI150
S'    form = SQLFORM(db[table], ignore_rw=ignore_rw)'
p142
sI151
S'    if form.accepts(request.vars, session):'
p143
sI152
S"        response.flash = T('new record inserted')"
p144
sI153
S'    return dict(form=form, table=db[table])'
p145
sI154
S''
sI155
S''
ssg87
S'()'
p146
sg89
S'insert'
p147
sa(dp148
g66
S'/Applications/web2py/web2py.app/Contents/Resources/gluon/sqlhtml.py'
p149
sg68
(dp150
S'self.vars.id'
p151
S'None'
p152
sS'fields'
p153
S"{'manager': '1'}"
p154
sS'self'
p155
S'<gluon.sqlhtml.SQLFORM object>'
p156
sS'self.vars'
p157
S"<Storage {'manager': '1'}>"
p158
sS'self.table.insert'
p159
S'<bound method Table.insert of <Table groups (id, manager)>>'
p160
sS'self.table'
p161
S'<Table groups (id, manager)>'
p162
ssg74
I1746
sg75
(dp163
I1741
S'                    self.vars.id = self.record[self.id_field_name]'
p164
sI1742
S'                    if fields:'
p165
sI1743
S'                        self.table._db(self.table._id == self.record['
p166
sI1744
S'                                       self.id_field_name]).update(**fields)'
p167
sI1745
S'                else:'
p168
sI1746
S'                    self.vars.id = self.table.insert(**fields)'
p169
sI1747
S''
sI1748
S'        self.accepted = ret'
p170
sI1749
S'        return ret'
p171
sI1750
S''
ssg87
S"(self=<gluon.sqlhtml.SQLFORM object>, request_vars=<Storage {'manager': '1', '_formkey': '59b325b9-...841-fb90363e3aec', '_formname': 'groups/create'}>, session=<Storage {'last_query': 'db.groups.id>0', '_auth...ate]': ['03295bee-0261-4fe3-b611-631ec3a6aff5']}>, formname='groups/create', keepvalues=False, onvalidation=None, dbio=True, hideerror=False, detect_record_change=False, **kwargs={})"
p172
sg89
S'accepts'
p173
sa(dp174
g66
S'/Applications/web2py/web2py.app/Contents/Resources/gluon/packages/dal/pydal/objects.py'
p175
sg68
(dp176
S'self._listify'
p177
S'<bound method Table._listify of <Table groups (id, manager)>>'
p178
sS'fields'
p179
S"{'manager': '1'}"
p180
sS'self'
p181
S'<Table groups (id, manager)>'
p182
sS'ret'
p183
g111
sS'self._db._adapter'
p184
S'<pydal.adapters.sqlite.SQLiteAdapter object>'
p185
sS'self._db._adapter.insert'
p186
S'<bound method SQLiteAdapter.insert of <pydal.adapters.sqlite.SQLiteAdapter object>>'
p187
sS'self._db'
p188
S'<DAL uri="sqlite://storage.sqlite">'
p189
ssg74
I726
sg75
(dp190
I721
S'    def insert(self, **fields):'
p191
sI722
S'        fields = self._defaults(fields)'
p192
sI723
S'        self._attempt_upload(fields)'
p193
sI724
S'        if any(f(fields) for f in self._before_insert):'
p194
sI725
S'            return 0'
p195
sI726
S'        ret = self._db._adapter.insert(self, self._listify(fields))'
p196
sI727
S'        if ret and self._after_insert:'
p197
sI728
S'            fields = Row(fields)'
p198
sI729
S'            [f(fields, ret) for f in self._after_insert]'
p199
sI730
S'        return ret'
p200
ssg87
S"(self=<Table groups (id, manager)>, **fields={'manager': '1'})"
p201
sg89
g147
sa(dp202
g66
S'/Applications/web2py/web2py.app/Contents/Resources/gluon/packages/dal/pydal/adapters/base.py'
p203
sg68
(dp204
S'e'
S"OperationalError('no such table: groups',)"
p205
ssg74
I746
sg75
(dp206
I741
S'            self.execute(query)'
p207
sI742
S'        except Exception:'
p208
sI743
S'            e = sys.exc_info()[1]'
p209
sI744
S"            if hasattr(table,'_on_insert_error'):"
p210
sI745
S'                return table._on_insert_error(table,fields,e)'
p211
sI746
S'            raise e'
p212
sI747
S"        if hasattr(table, '_primarykey'):"
p213
sI748
S'            mydict = dict([(k[0].name, k[1]) for k in fields if k[0].name in table._primarykey])'
p214
sI749
S'            if mydict != {}:'
p215
sI750
S'                return mydict'
p216
ssg87
S"(self=<pydal.adapters.sqlite.SQLiteAdapter object>, table=<Table groups (id, manager)>, fields=[(<pydal.objects.Field object>, '1')])"
p217
sg89
g147
sasS'pyver'
p218
S'Python 2.7.10: /usr/bin/python (prefix: /System/Library/Frameworks/Python.framework/Versions/2.7)'
p219
sS'session'
p220
g61
(S's\x0b\n\x00\x00<div><table><tr><td style="font-weight:bold;vertical-align:top;">auth</td><td style="vertical-align:top;">:</td><td><div><table><tr><td style="font-weight:bold;vertical-align:top;">expiration</td><td style="vertical-align:top;">:</td><td><div>3600</div></td></tr><tr><td style="font-weight:bold;vertical-align:top;">hmac_key</td><td style="vertical-align:top;">:</td><td><div>c7aafccc-fb15-41f3-8331-21db44fee752</div></td></tr><tr><td style="font-weight:bold;vertical-align:top;">last_visit</td><td style="vertical-align:top;">:</td><td><div>datetime.datetime(2016, 10, 12, 22, 53, 6, 153104)</div></td></tr><tr><td style="font-weight:bold;vertical-align:top;">remember_me</td><td style="vertical-align:top;">:</td><td><div>False</div></td></tr><tr><td style="font-weight:bold;vertical-align:top;">user</td><td style="vertical-align:top;">:</td><td><div><table><tr><td style="font-weight:bold;vertical-align:top;">email</td><td style="vertical-align:top;">:</td><td><div>bowenjbrooks@gmail.com</div></td></tr><tr><td style="font-weight:bold;vertical-align:top;">first_name</td><td style="vertical-align:top;">:</td><td><div>Bowen</div></td></tr><tr><td style="font-weight:bold;vertical-align:top;">id</td><td style="vertical-align:top;">:</td><td><div>1L</div></td></tr><tr><td style="font-weight:bold;vertical-align:top;">last_name</td><td style="vertical-align:top;">:</td><td><div>Brooks</div></td></tr><tr><td style="font-weight:bold;vertical-align:top;">registration_id</td><td style="vertical-align:top;">:</td><td><div></div></td></tr><tr><td style="font-weight:bold;vertical-align:top;">registration_key</td><td style="vertical-align:top;">:</td><td><div></div></td></tr><tr><td style="font-weight:bold;vertical-align:top;">reset_password_key</td><td style="vertical-align:top;">:</td><td><div></div></td></tr></table></div></td></tr><tr><td style="font-weight:bold;vertical-align:top;">user_groups</td><td style="vertical-align:top;">:</td><td><div><table><tr><td style="font-weight:bold;vertical-align:top;">1</td><td style="vertical-align:top;">:</td><td><div>user_1</div></td></tr></table></div></td></tr></table></div></td></tr><tr><td style="font-weight:bold;vertical-align:top;">flash</td><td style="vertical-align:top;">:</td><td><div>None</div></td></tr><tr><td style="font-weight:bold;vertical-align:top;">last_orderby</td><td style="vertical-align:top;">:</td><td><div>None</div></td></tr><tr><td style="font-weight:bold;vertical-align:top;">last_query</td><td style="vertical-align:top;">:</td><td><div>db.groups.id&gt;0</div></td></tr></table></div>'
tRp221
sS'etype'
p222
S"<class 'sqlite3.OperationalError'>"
p223
sS'date'
p224
S'Wed Oct 12 22:55:15 2016'
p225
sS'response'
p226
g61
(S's\x9a\x1f\x00\x00<div><table><tr><td style="font-weight:bold;vertical-align:top;">body</td><td style="vertical-align:top;">:</td><td><div>&lt;cStringIO.StringO object at 0x10a599fb8&gt;</div></td></tr><tr><td style="font-weight:bold;vertical-align:top;">cookies</td><td style="vertical-align:top;">:</td><td><div><table><tr><td style="font-weight:bold;vertical-align:top;">session_id_gapsort</td><td style="vertical-align:top;">:</td><td><div>127.0.0.1-6598a118-b2e4-4185-b2c9-f673b632aa63<table><tr><td style="font-weight:bold;vertical-align:top;">comment</td><td style="vertical-align:top;">:</td><td><div></div></td></tr><tr><td style="font-weight:bold;vertical-align:top;">domain</td><td style="vertical-align:top;">:</td><td><div></div></td></tr><tr><td style="font-weight:bold;vertical-align:top;">expires</td><td style="vertical-align:top;">:</td><td><div></div></td></tr><tr><td style="font-weight:bold;vertical-align:top;">httponly</td><td style="vertical-align:top;">:</td><td><div></div></td></tr><tr><td style="font-weight:bold;vertical-align:top;">max-age</td><td style="vertical-align:top;">:</td><td><div></div></td></tr><tr><td style="font-weight:bold;vertical-align:top;">path</td><td style="vertical-align:top;">:</td><td><div>/</div></td></tr><tr><td style="font-weight:bold;vertical-align:top;">secure</td><td style="vertical-align:top;">:</td><td><div></div></td></tr><tr><td style="font-weight:bold;vertical-align:top;">version</td><td style="vertical-align:top;">:</td><td><div></div></td></tr></table></div></td></tr></table></div></td></tr><tr><td style="font-weight:bold;vertical-align:top;">delimiters</td><td style="vertical-align:top;">:</td><td><div><table><tr><td><div>{{</div></td></tr><tr><td><div>}}</div></td></tr></table></div></td></tr><tr><td style="font-weight:bold;vertical-align:top;">files</td><td style="vertical-align:top;">:</td><td><div><table></table></div></td></tr><tr><td style="font-weight:bold;vertical-align:top;">flash</td><td style="vertical-align:top;">:</td><td><div></div></td></tr><tr><td style="font-weight:bold;vertical-align:top;">form_label_separator</td><td style="vertical-align:top;">:</td><td><div></div></td></tr><tr><td style="font-weight:bold;vertical-align:top;">formstyle</td><td style="vertical-align:top;">:</td><td><div>bootstrap3_inline</div></td></tr><tr><td style="font-weight:bold;vertical-align:top;">generic_patterns</td><td style="vertical-align:top;">:</td><td><div><table><tr><td><div>*</div></td></tr></table></div></td></tr><tr><td style="font-weight:bold;vertical-align:top;">google_analytics_id</td><td style="vertical-align:top;">:</td><td><div>None</div></td></tr><tr><td style="font-weight:bold;vertical-align:top;">headers</td><td style="vertical-align:top;">:</td><td><div><table><tr><td style="font-weight:bold;vertical-align:top;">X-Powered-By</td><td style="vertical-align:top;">:</td><td><div>web2py</div></td></tr></table></div></td></tr><tr><td style="font-weight:bold;vertical-align:top;">logo</td><td style="vertical-align:top;">:</td><td><div><a class="navbar-brand" href="http://www.web2py.com/" id="web2py-logo"><b>web<span>2</span>py</b>&trade;&nbsp;</a></div></td></tr><tr><td style="font-weight:bold;vertical-align:top;">menu</td><td style="vertical-align:top;">:</td><td><div><table><tr><td><div><table><tr><td><div>design</div></td></tr><tr><td><div>False</div></td></tr><tr><td><div>/admin/default/design/gapSort</div></td></tr></table></div></td></tr><tr><td><div><table><tr><td><div>db</div></td></tr><tr><td><div>False</div></td></tr><tr><td><div>/gapSort/appadmin/index</div></td></tr></table></div></td></tr><tr><td><div><table><tr><td><div>state</div></td></tr><tr><td><div>False</div></td></tr><tr><td><div>/gapSort/appadmin/state</div></td></tr></table></div></td></tr><tr><td><div><table><tr><td><div>cache</div></td></tr><tr><td><div>False</div></td></tr><tr><td><div>/gapSort/appadmin/ccache</div></td></tr></table></div></td></tr></table></div></td></tr><tr><td style="font-weight:bold;vertical-align:top;">meta</td><td style="vertical-align:top;">:</td><td><div><table><tr><td style="font-weight:bold;vertical-align:top;">author</td><td style="vertical-align:top;">:</td><td><div>Your Name &lt;you@example.com&gt;</div></td></tr><tr><td style="font-weight:bold;vertical-align:top;">description</td><td style="vertical-align:top;">:</td><td><div>a cool new app</div></td></tr><tr><td style="font-weight:bold;vertical-align:top;">generator</td><td style="vertical-align:top;">:</td><td><div>Web2py Web Framework</div></td></tr><tr><td style="font-weight:bold;vertical-align:top;">keywords</td><td style="vertical-align:top;">:</td><td><div><table><tr><td><div>web2py</div></td></tr><tr><td><div>python</div></td></tr><tr><td><div>framework</div></td></tr></table></div></td></tr></table></div></td></tr><tr><td style="font-weight:bold;vertical-align:top;">models_to_run</td><td style="vertical-align:top;">:</td><td><div><table><tr><td><div>^\\w+\\.py$</div></td></tr><tr><td><div>^appadmin/\\w+\\.py$</div></td></tr><tr><td><div>^appadmin/insert/\\w+\\.py$</div></td></tr></table></div></td></tr><tr><td style="font-weight:bold;vertical-align:top;">postprocessing</td><td style="vertical-align:top;">:</td><td><div><table></table></div></td></tr><tr><td style="font-weight:bold;vertical-align:top;">session_client</td><td style="vertical-align:top;">:</td><td><div>127.0.0.1</div></td></tr><tr><td style="font-weight:bold;vertical-align:top;">session_cookie_compression_level</td><td style="vertical-align:top;">:</td><td><div>None</div></td></tr><tr><td style="font-weight:bold;vertical-align:top;">session_cookie_expires</td><td style="vertical-align:top;">:</td><td><div>None</div></td></tr><tr><td style="font-weight:bold;vertical-align:top;">session_data_name</td><td style="vertical-align:top;">:</td><td><div>session_data_gapsort</div></td></tr><tr><td style="font-weight:bold;vertical-align:top;">session_file</td><td style="vertical-align:top;">:</td><td><div>&lt;open file &#x27;/Applications/web2py/web2py.app/Contents/Resources/applications/gapSort/sessions/05e/068/127.0.0.1-6598a118-b2e4-4185-b2c9-f673b632aa63&#x27;, mode &#x27;rb+&#x27; at 0x109a218a0&gt;</div></td></tr><tr><td style="font-weight:bold;vertical-align:top;">session_filename</td><td style="vertical-align:top;">:</td><td><div>/Applications/web2py/web2py.app/Contents/Resources/applications/gapSort/sessions/127.0.0.1-6598a118-b2e4-4185-b2c9-f673b632aa63</div></td></tr><tr><td style="font-weight:bold;vertical-align:top;">session_hash</td><td style="vertical-align:top;">:</td><td><div>36c4747a25a90186f7a4e28890aa8353</div></td></tr><tr><td style="font-weight:bold;vertical-align:top;">session_id</td><td style="vertical-align:top;">:</td><td><div>127.0.0.1-6598a118-b2e4-4185-b2c9-f673b632aa63</div></td></tr><tr><td style="font-weight:bold;vertical-align:top;">session_id_name</td><td style="vertical-align:top;">:</td><td><div>session_id_gapsort</div></td></tr><tr><td style="font-weight:bold;vertical-align:top;">session_locked</td><td style="vertical-align:top;">:</td><td><div>True</div></td></tr><tr><td style="font-weight:bold;vertical-align:top;">session_masterapp</td><td style="vertical-align:top;">:</td><td><div>gapSort</div></td></tr><tr><td style="font-weight:bold;vertical-align:top;">session_new</td><td style="vertical-align:top;">:</td><td><div>False</div></td></tr><tr><td style="font-weight:bold;vertical-align:top;">session_storage_type</td><td style="vertical-align:top;">:</td><td><div>file</div></td></tr><tr><td style="font-weight:bold;vertical-align:top;">status</td><td style="vertical-align:top;">:</td><td><div>200</div></td></tr><tr><td style="font-weight:bold;vertical-align:top;">subtitle</td><td style="vertical-align:top;">:</td><td><div>Database Administration (appadmin)</div></td></tr><tr><td style="font-weight:bold;vertical-align:top;">title</td><td style="vertical-align:top;">:</td><td><div>Gapsort</div></td></tr><tr><td style="font-weight:bold;vertical-align:top;">view</td><td style="vertical-align:top;">:</td><td><div>appadmin.html</div></td></tr></table></div>'
tRp227
sS'locals'
p228
(dp229
S'fields'
p230
S"[(<pydal.objects.Field object>, '1')]"
p231
sS'self'
p232
S'<pydal.adapters.sqlite.SQLiteAdapter object>'
p233
sS'e'
S"OperationalError('no such table: groups',)"
p234
sS'table'
p235
S'<Table groups (id, manager)>'
p236
sS'query'
p237
S'"INSERT INTO groups(manager) VALUES (\'1\');"'
p238
sssS'traceback'
p239
S'Traceback (most recent call last):\n  File "/Applications/web2py/web2py.app/Contents/Resources/gluon/restricted.py", line 227, in restricted\n    exec ccode in environment\n  File "/Applications/web2py/web2py.app/Contents/Resources/applications/gapSort/controllers/appadmin.py", line 703, in <module>\n  File "/Applications/web2py/web2py.app/Contents/Resources/gluon/globals.py", line 417, in <lambda>\n    self._caller = lambda f: f()\n  File "/Applications/web2py/web2py.app/Contents/Resources/applications/gapSort/controllers/appadmin.py", line 151, in insert\n    if form.accepts(request.vars, session):\n  File "/Applications/web2py/web2py.app/Contents/Resources/gluon/sqlhtml.py", line 1746, in accepts\n    self.vars.id = self.table.insert(**fields)\n  File "/Applications/web2py/web2py.app/Contents/Resources/gluon/packages/dal/pydal/objects.py", line 726, in insert\n    ret = self._db._adapter.insert(self, self._listify(fields))\n  File "/Applications/web2py/web2py.app/Contents/Resources/gluon/packages/dal/pydal/adapters/base.py", line 746, in insert\n    raise e\nOperationalError: no such table: groups\n'
p240
s.